target datalayout = "e-m:e-p270:32:32-p271:32:32-p272:64:64-i64:64-i128:128-f80:128-n8:16:32:64-S128"
target triple = "x86_64-pc-linux-gnu"

%"class.std::__cxx11::basic_string" = type { %"struct.std::__cxx11::basic_string<char>::_Alloc_hider", i64, %union.anon }
%"struct.std::__cxx11::basic_string<char>::_Alloc_hider" = type { ptr }
%union.anon = type { i64, [8 x i8] }
%"class.gmx::EnergyTerm" = type <{ %"class.std::__cxx11::basic_string", %"class.std::__cxx11::basic_string", i64, i64, i64, i32, [4 x i8], double, double, double, double, i8, i8, [6 x i8], %"class.std::vector", double, double, i8, [7 x i8] }>
%"class.std::vector" = type { %"struct.std::_Vector_base" }
%"struct.std::_Vector_base" = type { %"struct.std::_Vector_base<gmx::EnergyAnalysisFrame, std::allocator<gmx::EnergyAnalysisFrame>>::_Vector_impl" }
%"struct.std::_Vector_base<gmx::EnergyAnalysisFrame, std::allocator<gmx::EnergyAnalysisFrame>>::_Vector_impl" = type { %"struct.std::_Vector_base<gmx::EnergyAnalysisFrame, std::allocator<gmx::EnergyAnalysisFrame>>::_Vector_impl_data" }
%"struct.std::_Vector_base<gmx::EnergyAnalysisFrame, std::allocator<gmx::EnergyAnalysisFrame>>::_Vector_impl_data" = type { ptr, ptr, ptr }
%"class.gmx::EnergyAnalysisFrame" = type { double, i64, double, i32, double, double }
%"class.__gnu_cxx::__normal_iterator" = type { ptr }

@stderr = external global ptr, align 8
@.str = private unnamed_addr constant [50 x i8] c"WARNING: frame %s out of range (0 <= frame < %s)\0A\00", align 1
@.str.1 = private unnamed_addr constant [36 x i8] c"WARNING: energy frames not stored.\0A\00", align 1

; Function Attrs: mustprogress nounwind uwtable
define linkonce_odr ptr @_ZNKSt6vectorIN3gmx19EnergyAnalysisFrameESaIS1_EE3endEv(ptr noundef nonnull align 8 dereferenceable(24) %0) #2 comdat align 2 {
  %2 = alloca %"class.__gnu_cxx::__normal_iterator", align 8
  %3 = alloca ptr, align 8
  store ptr %0, ptr %3, align 8
  %4 = load ptr, ptr %3, align 8
  %5 = getelementptr inbounds %"struct.std::_Vector_base", ptr %4, i32 0, i32 0
  %6 = getelementptr inbounds %"struct.std::_Vector_base<gmx::EnergyAnalysisFrame, std::allocator<gmx::EnergyAnalysisFrame>>::_Vector_impl_data", ptr %5, i32 0, i32 1
  call void @_ZN9__gnu_cxx17__normal_iteratorIPKN3gmx19EnergyAnalysisFrameESt6vectorIS2_SaIS2_EEEC2ERKS4_(ptr noundef nonnull align 8 dereferenceable(8) %2, ptr noundef nonnull align 8 dereferenceable(8) %6) #10
  %7 = getelementptr inbounds %"class.__gnu_cxx::__normal_iterator", ptr %2, i32 0, i32 0
  %8 = load ptr, ptr %7, align 8
  ret ptr %8
}

; Function Attrs: mustprogress nounwind uwtable
define linkonce_odr void @_ZN9__gnu_cxx17__normal_iteratorIPKN3gmx19EnergyAnalysisFrameESt6vectorIS2_SaIS2_EEEC2ERKS4_(ptr noundef nonnull align 8 dereferenceable(8) %0, ptr noundef nonnull align 8 dereferenceable(8) %1) unnamed_addr #2 comdat align 2 {
  %3 = alloca ptr, align 8
  %4 = alloca ptr, align 8
  store ptr %0, ptr %3, align 8
  store ptr %1, ptr %4, align 8
  %5 = load ptr, ptr %3, align 8
  %6 = getelementptr inbounds %"class.__gnu_cxx::__normal_iterator", ptr %5, i32 0, i32 0
  %7 = load ptr, ptr %4, align 8
  %8 = load ptr, ptr %7, align 8
  store ptr %8, ptr %6, align 8
  ret void
}

; Function Attrs: mustprogress nounwind uwtable
define linkonce_odr ptr @_ZNKSt6vectorIN3gmx19EnergyAnalysisFrameESaIS1_EE5beginEv(ptr noundef nonnull align 8 dereferenceable(24) %0) #2 comdat align 2 {
  %2 = alloca %"class.__gnu_cxx::__normal_iterator", align 8
  %3 = alloca ptr, align 8
  store ptr %0, ptr %3, align 8
  %4 = load ptr, ptr %3, align 8
  %5 = getelementptr inbounds %"struct.std::_Vector_base", ptr %4, i32 0, i32 0
  %6 = getelementptr inbounds %"struct.std::_Vector_base<gmx::EnergyAnalysisFrame, std::allocator<gmx::EnergyAnalysisFrame>>::_Vector_impl_data", ptr %5, i32 0, i32 0
  call void @_ZN9__gnu_cxx17__normal_iteratorIPKN3gmx19EnergyAnalysisFrameESt6vectorIS2_SaIS2_EEEC2ERKS4_(ptr noundef nonnull align 8 dereferenceable(8) %2, ptr noundef nonnull align 8 dereferenceable(8) %6) #10
  %7 = getelementptr inbounds %"class.__gnu_cxx::__normal_iterator", ptr %2, i32 0, i32 0
  %8 = load ptr, ptr %7, align 8
  ret ptr %8
}

; Function Attrs: mustprogress nounwind uwtable
define linkonce_odr noundef i64 @_ZNKSt6vectorIN3gmx19EnergyAnalysisFrameESaIS1_EE4sizeEv(ptr noundef nonnull align 8 dereferenceable(24) %0) #2 comdat align 2 {
  %2 = alloca ptr, align 8
  store ptr %0, ptr %2, align 8
  %3 = load ptr, ptr %2, align 8
  %4 = getelementptr inbounds %"struct.std::_Vector_base", ptr %3, i32 0, i32 0
  %5 = getelementptr inbounds %"struct.std::_Vector_base<gmx::EnergyAnalysisFrame, std::allocator<gmx::EnergyAnalysisFrame>>::_Vector_impl_data", ptr %4, i32 0, i32 1
  %6 = load ptr, ptr %5, align 8
  %7 = getelementptr inbounds %"struct.std::_Vector_base", ptr %3, i32 0, i32 0
  %8 = getelementptr inbounds %"struct.std::_Vector_base<gmx::EnergyAnalysisFrame, std::allocator<gmx::EnergyAnalysisFrame>>::_Vector_impl_data", ptr %7, i32 0, i32 0
  %9 = load ptr, ptr %8, align 8
  %10 = ptrtoint ptr %6 to i64
  %11 = ptrtoint ptr %9 to i64
  %12 = sub i64 %10, %11
  %13 = sdiv exact i64 %12, 48
  ret i64 %13
}

; Function Attrs: mustprogress nounwind uwtable
define linkonce_odr ptr @_ZNK3gmx10EnergyTerm3endEv(ptr noundef nonnull align 8 dereferenceable(177) %0) #2 comdat align 2 {
  %2 = alloca %"class.__gnu_cxx::__normal_iterator", align 8
  %3 = alloca ptr, align 8
  store ptr %0, ptr %3, align 8
  %4 = load ptr, ptr %3, align 8
  %5 = getelementptr inbounds %"class.gmx::EnergyTerm", ptr %4, i32 0, i32 14
  %6 = call ptr @_ZNKSt6vectorIN3gmx19EnergyAnalysisFrameESaIS1_EE3endEv(ptr noundef nonnull align 8 dereferenceable(24) %5) #10
  %7 = getelementptr inbounds %"class.__gnu_cxx::__normal_iterator", ptr %2, i32 0, i32 0
  store ptr %6, ptr %7, align 8
  %8 = getelementptr inbounds %"class.__gnu_cxx::__normal_iterator", ptr %2, i32 0, i32 0
  %9 = load ptr, ptr %8, align 8
  ret ptr %9
}

; Function Attrs: mustprogress nounwind uwtable
define linkonce_odr ptr @_ZNK9__gnu_cxx17__normal_iteratorIPKN3gmx19EnergyAnalysisFrameESt6vectorIS2_SaIS2_EEEplEl(ptr noundef nonnull align 8 dereferenceable(8) %0, i64 noundef %1) #2 comdat align 2 {
  %3 = alloca %"class.__gnu_cxx::__normal_iterator", align 8
  %4 = alloca ptr, align 8
  %5 = alloca i64, align 8
  %6 = alloca ptr, align 8
  store ptr %0, ptr %4, align 8
  store i64 %1, ptr %5, align 8
  %7 = load ptr, ptr %4, align 8
  %8 = getelementptr inbounds %"class.__gnu_cxx::__normal_iterator", ptr %7, i32 0, i32 0
  %9 = load ptr, ptr %8, align 8
  %10 = load i64, ptr %5, align 8
  %11 = getelementptr inbounds %"class.gmx::EnergyAnalysisFrame", ptr %9, i64 %10
  store ptr %11, ptr %6, align 8
  call void @_ZN9__gnu_cxx17__normal_iteratorIPKN3gmx19EnergyAnalysisFrameESt6vectorIS2_SaIS2_EEEC2ERKS4_(ptr noundef nonnull align 8 dereferenceable(8) %3, ptr noundef nonnull align 8 dereferenceable(8) %6) #10
  %12 = getelementptr inbounds %"class.__gnu_cxx::__normal_iterator", ptr %3, i32 0, i32 0
  %13 = load ptr, ptr %12, align 8
  ret ptr %13
}

; Function Attrs: mustprogress nounwind uwtable
define linkonce_odr ptr @_ZNK3gmx10EnergyTerm5beginEv(ptr noundef nonnull align 8 dereferenceable(177) %0) #2 comdat align 2 {
  %2 = alloca %"class.__gnu_cxx::__normal_iterator", align 8
  %3 = alloca ptr, align 8
  store ptr %0, ptr %3, align 8
  %4 = load ptr, ptr %3, align 8
  %5 = getelementptr inbounds %"class.gmx::EnergyTerm", ptr %4, i32 0, i32 14
  %6 = call ptr @_ZNKSt6vectorIN3gmx19EnergyAnalysisFrameESaIS1_EE5beginEv(ptr noundef nonnull align 8 dereferenceable(24) %5) #10
  %7 = getelementptr inbounds %"class.__gnu_cxx::__normal_iterator", ptr %2, i32 0, i32 0
  store ptr %6, ptr %7, align 8
  %8 = getelementptr inbounds %"class.__gnu_cxx::__normal_iterator", ptr %2, i32 0, i32 0
  %9 = load ptr, ptr %8, align 8
  ret ptr %9
}

; Function Attrs: mustprogress nounwind uwtable
define linkonce_odr noundef i64 @_ZNK3gmx10EnergyTerm9numFramesEv(ptr noundef nonnull align 8 dereferenceable(177) %0) #2 comdat align 2 {
  %2 = alloca ptr, align 8
  store ptr %0, ptr %2, align 8
  %3 = load ptr, ptr %2, align 8
  %4 = getelementptr inbounds %"class.gmx::EnergyTerm", ptr %3, i32 0, i32 14
  %5 = call noundef i64 @_ZNKSt6vectorIN3gmx19EnergyAnalysisFrameESaIS1_EE4sizeEv(ptr noundef nonnull align 8 dereferenceable(24) %4) #10
  ret i64 %5
}

; Function Attrs: mustprogress nounwind uwtable
define linkonce_odr noundef zeroext i1 @_ZNK3gmx10EnergyTerm9storeDataEv(ptr noundef nonnull align 8 dereferenceable(177) %0) #2 comdat align 2 {
  %2 = alloca ptr, align 8
  store ptr %0, ptr %2, align 8
  %3 = load ptr, ptr %2, align 8
  %4 = getelementptr inbounds %"class.gmx::EnergyTerm", ptr %3, i32 0, i32 12
  %5 = load i8, ptr %4, align 1
  %6 = trunc i8 %5 to i1
  ret i1 %6
}

; Function Attrs: mustprogress uwtable
define ptr @_ZNK3gmx10EnergyTerm9findFrameEl(ptr noundef nonnull align 8 dereferenceable(177) %0, i64 noundef %1) #0 align 2 {
  %3 = alloca %"class.__gnu_cxx::__normal_iterator", align 8
  %4 = alloca ptr, align 8
  %5 = alloca i64, align 8
  %6 = alloca %"class.__gnu_cxx::__normal_iterator", align 8
  %7 = alloca [256 x i8], align 16
  %8 = alloca [256 x i8], align 16
  store ptr %0, ptr %4, align 8
  store i64 %1, ptr %5, align 8
  %9 = load ptr, ptr %4, align 8
  %10 = call noundef zeroext i1 @_ZNK3gmx10EnergyTerm9storeDataEv(ptr noundef nonnull align 8 dereferenceable(177) %9)
  br i1 %10, label %11, label %39

11:                                               ; preds = %2
  %12 = load i64, ptr %5, align 8
  %13 = call noundef i64 @_ZNK3gmx10EnergyTerm9numFramesEv(ptr noundef nonnull align 8 dereferenceable(177) %9)
  %14 = icmp slt i64 %12, %13
  br i1 %14, label %15, label %24

15:                                               ; preds = %11
  %16 = load i64, ptr %5, align 8
  %17 = icmp sge i64 %16, 0
  br i1 %17, label %18, label %24

18:                                               ; preds = %15
  %19 = call ptr @_ZNK3gmx10EnergyTerm5beginEv(ptr noundef nonnull align 8 dereferenceable(177) %9)
  %20 = getelementptr inbounds %"class.__gnu_cxx::__normal_iterator", ptr %6, i32 0, i32 0
  store ptr %19, ptr %20, align 8
  %21 = load i64, ptr %5, align 8
  %22 = call ptr @_ZNK9__gnu_cxx17__normal_iteratorIPKN3gmx19EnergyAnalysisFrameESt6vectorIS2_SaIS2_EEEplEl(ptr noundef nonnull align 8 dereferenceable(8) %6, i64 noundef %21) #10
  %23 = getelementptr inbounds %"class.__gnu_cxx::__normal_iterator", ptr %3, i32 0, i32 0
  store ptr %22, ptr %23, align 8
  br label %45

24:                                               ; preds = %15, %11
  %25 = load i64, ptr %5, align 8
  %26 = call noundef i64 @_ZNK3gmx10EnergyTerm9numFramesEv(ptr noundef nonnull align 8 dereferenceable(177) %9)
  %27 = icmp ne i64 %25, %26
  br i1 %27, label %28, label %37

28:                                               ; preds = %24
  %29 = load ptr, ptr @stderr, align 8
  %30 = load i64, ptr %5, align 8
  %31 = getelementptr inbounds [256 x i8], ptr %7, i64 0, i64 0
  %32 = call noundef ptr @_Z12gmx_step_strlPc(i64 noundef %30, ptr noundef %31)
  %33 = call noundef i64 @_ZNK3gmx10EnergyTerm9numFramesEv(ptr noundef nonnull align 8 dereferenceable(177) %9)
  %34 = getelementptr inbounds [256 x i8], ptr %8, i64 0, i64 0
  %35 = call noundef ptr @_Z12gmx_step_strlPc(i64 noundef %33, ptr noundef %34)
  %36 = call i32 (ptr, ptr, ...) @fprintf(ptr noundef %29, ptr noundef @.str, ptr noundef %32, ptr noundef %35) #10
  br label %37

37:                                               ; preds = %28, %24
  br label %38

38:                                               ; preds = %37
  br label %42

39:                                               ; preds = %2
  %40 = load ptr, ptr @stderr, align 8
  %41 = call i32 (ptr, ptr, ...) @fprintf(ptr noundef %40, ptr noundef @.str.1) #10
  br label %42

42:                                               ; preds = %39, %38
  %43 = call ptr @_ZNK3gmx10EnergyTerm3endEv(ptr noundef nonnull align 8 dereferenceable(177) %9)
  %44 = getelementptr inbounds %"class.__gnu_cxx::__normal_iterator", ptr %3, i32 0, i32 0
  store ptr %43, ptr %44, align 8
  br label %45

45:                                               ; preds = %42, %18
  %46 = getelementptr inbounds %"class.__gnu_cxx::__normal_iterator", ptr %3, i32 0, i32 0
  %47 = load ptr, ptr %46, align 8
  ret ptr %47
}