; Function Attrs: mustprogress uwtable
define ptr @_ZNK3gmx10EnergyTerm9findFrameEl(ptr nocapture noundef nonnull readonly align 8 dereferenceable(177) %0, i64 noundef %1) local_unnamed_addr #0 align 2 {
  %3 = alloca [256 x i8], align 16
  %4 = alloca [256 x i8], align 16
  %5 = getelementptr inbounds i8, ptr %0, i64 129
  %6 = load i8, ptr %5, align 1
  %7 = trunc i8 %6 to i1
  br i1 %7, label %8, label %33

8:                                                ; preds = %2
  %9 = getelementptr inbounds i8, ptr %0, i64 136
  %10 = getelementptr inbounds i8, ptr %0, i64 144
  %11 = load ptr, ptr %10, align 8
  %12 = load ptr, ptr %9, align 8
  %13 = ptrtoint ptr %11 to i64
  %14 = ptrtoint ptr %12 to i64
  %15 = sub i64 %13, %14
  %16 = sdiv exact i64 %15, 48
  %17 = icmp sgt i64 %16, %1
  %18 = icmp sgt i64 %1, -1
  %or.cond = and i1 %18, %17
  br i1 %or.cond, label %19, label %21

19:                                               ; preds = %8
  %20 = getelementptr inbounds %"class.gmx::EnergyAnalysisFrame", ptr %12, i64 %1
  br label %39

21:                                               ; preds = %8
  %.not = icmp eq i64 %16, %1
  br i1 %.not, label %36, label %22

22:                                               ; preds = %21
  %23 = load ptr, ptr @stderr, align 8
  %24 = call noundef ptr @_Z12gmx_step_strlPc(i64 noundef %1, ptr noundef nonnull %3)
  %25 = load ptr, ptr %10, align 8
  %26 = load ptr, ptr %9, align 8
  %27 = ptrtoint ptr %25 to i64
  %28 = ptrtoint ptr %26 to i64
  %29 = sub i64 %27, %28
  %30 = sdiv exact i64 %29, 48
  %31 = call noundef ptr @_Z12gmx_step_strlPc(i64 noundef %30, ptr noundef nonnull %4)
  %32 = call i32 (ptr, ptr, ...) @fprintf(ptr noundef %23, ptr noundef nonnull @.str, ptr noundef %24, ptr noundef %31) #20
  br label %36

33:                                               ; preds = %2
  %34 = load ptr, ptr @stderr, align 8
  %35 = tail call i64 @fwrite(ptr nonnull @.str.1, i64 35, i64 1, ptr %34) #21
  br label %36

36:                                               ; preds = %22, %21, %33
  %37 = getelementptr inbounds i8, ptr %0, i64 144
  %38 = load ptr, ptr %37, align 8
  br label %39

39:                                               ; preds = %36, %19
  %.sroa.0.0 = phi ptr [ %20, %19 ], [ %38, %36 ]
  ret ptr %.sroa.0.0
}